target datalayout = "e-m:e-p270:32:32-p271:32:32-p272:64:64-i64:64-i128:128-f80:128-n8:16:32:64-S128"
target triple = "x86_64-pc-linux-gnu"

%struct._object = type { %union.anon, ptr }
%union.anon = type { i64 }
%struct.anon = type { i32, i32 }
%struct.methodcallerobject = type { %struct._object, ptr, ptr, ptr, ptr, ptr, ptr }

; Function Attrs: alwaysinline nounwind uwtable
define internal i32 @_Py_IsImmortal(ptr noundef %0) #4 {
  %2 = alloca ptr, align 8
  store ptr %0, ptr %2, align 8, !tbaa !4
  %3 = load ptr, ptr %2, align 8, !tbaa !4
  %4 = getelementptr inbounds nuw %struct._object, ptr %3, i32 0, i32 0
  %5 = getelementptr inbounds nuw %struct.anon, ptr %4, i32 0, i32 0
  %6 = load i32, ptr %5, align 8, !tbaa !20
  %7 = icmp slt i32 %6, 0
  %8 = zext i1 %7 to i32
  ret i32 %8
}

; Function Attrs: alwaysinline nounwind uwtable
define internal void @Py_DECREF(ptr noundef %0) #4 {
  %2 = alloca ptr, align 8
  store ptr %0, ptr %2, align 8, !tbaa !4
  %3 = load ptr, ptr %2, align 8, !tbaa !4
  %4 = call i32 @_Py_IsImmortal(ptr noundef %3)
  %5 = icmp ne i32 %4, 0
  br i1 %5, label %6, label %7

6:                                                ; preds = %1
  br label %16

7:                                                ; preds = %1
  %8 = load ptr, ptr %2, align 8, !tbaa !4
  %9 = getelementptr inbounds nuw %struct._object, ptr %8, i32 0, i32 0
  %10 = getelementptr inbounds nuw %struct.anon, ptr %9, i32 0, i32 0
  %11 = load i32, ptr %10, align 8, !tbaa !20
  %12 = add i32 %11, -1
  store i32 %12, ptr %10, align 8, !tbaa !20
  %13 = icmp eq i32 %12, 0
  br i1 %13, label %14, label %16

14:                                               ; preds = %7
  %15 = load ptr, ptr %2, align 8, !tbaa !4
  call void @_Py_Dealloc(ptr noundef %15)
  br label %16

16:                                               ; preds = %6, %14, %7
  ret void
}

; Function Attrs: nounwind uwtable
define internal void @methodcaller_clear(ptr noundef %0) #0 {
  %2 = alloca ptr, align 8
  %3 = alloca ptr, align 8
  %4 = alloca ptr, align 8
  %5 = alloca ptr, align 8
  %6 = alloca ptr, align 8
  %7 = alloca ptr, align 8
  %8 = alloca ptr, align 8
  %9 = alloca ptr, align 8
  %10 = alloca ptr, align 8
  %11 = alloca ptr, align 8
  %12 = alloca ptr, align 8
  store ptr %0, ptr %2, align 8, !tbaa !9
  br label %13

13:                                               ; preds = %1
  call void @llvm.lifetime.start.p0(i64 8, ptr %3) #7
  %14 = load ptr, ptr %2, align 8, !tbaa !9
  %15 = getelementptr inbounds nuw %struct.methodcallerobject, ptr %14, i32 0, i32 1
  store ptr %15, ptr %3, align 8, !tbaa !16
  call void @llvm.lifetime.start.p0(i64 8, ptr %4) #7
  %16 = load ptr, ptr %3, align 8, !tbaa !16
  %17 = load ptr, ptr %16, align 8, !tbaa !4
  store ptr %17, ptr %4, align 8, !tbaa !4
  %18 = load ptr, ptr %4, align 8, !tbaa !4
  %19 = icmp ne ptr %18, null
  br i1 %19, label %20, label %23

20:                                               ; preds = %13
  %21 = load ptr, ptr %3, align 8, !tbaa !16
  store ptr null, ptr %21, align 8, !tbaa !4
  %22 = load ptr, ptr %4, align 8, !tbaa !4
  call void @Py_DECREF(ptr noundef %22)
  br label %23

23:                                               ; preds = %20, %13
  call void @llvm.lifetime.end.p0(i64 8, ptr %4) #7
  call void @llvm.lifetime.end.p0(i64 8, ptr %3) #7
  br label %24

24:                                               ; preds = %23
  br label %25

25:                                               ; preds = %24
  call void @llvm.lifetime.start.p0(i64 8, ptr %5) #7
  %26 = load ptr, ptr %2, align 8, !tbaa !9
  %27 = getelementptr inbounds nuw %struct.methodcallerobject, ptr %26, i32 0, i32 2
  store ptr %27, ptr %5, align 8, !tbaa !16
  call void @llvm.lifetime.start.p0(i64 8, ptr %6) #7
  %28 = load ptr, ptr %5, align 8, !tbaa !16
  %29 = load ptr, ptr %28, align 8, !tbaa !4
  store ptr %29, ptr %6, align 8, !tbaa !4
  %30 = load ptr, ptr %6, align 8, !tbaa !4
  %31 = icmp ne ptr %30, null
  br i1 %31, label %32, label %35

32:                                               ; preds = %25
  %33 = load ptr, ptr %5, align 8, !tbaa !16
  store ptr null, ptr %33, align 8, !tbaa !4
  %34 = load ptr, ptr %6, align 8, !tbaa !4
  call void @Py_DECREF(ptr noundef %34)
  br label %35

35:                                               ; preds = %32, %25
  call void @llvm.lifetime.end.p0(i64 8, ptr %6) #7
  call void @llvm.lifetime.end.p0(i64 8, ptr %5) #7
  br label %36

36:                                               ; preds = %35
  br label %37

37:                                               ; preds = %36
  call void @llvm.lifetime.start.p0(i64 8, ptr %7) #7
  %38 = load ptr, ptr %2, align 8, !tbaa !9
  %39 = getelementptr inbounds nuw %struct.methodcallerobject, ptr %38, i32 0, i32 3
  store ptr %39, ptr %7, align 8, !tbaa !16
  call void @llvm.lifetime.start.p0(i64 8, ptr %8) #7
  %40 = load ptr, ptr %7, align 8, !tbaa !16
  %41 = load ptr, ptr %40, align 8, !tbaa !4
  store ptr %41, ptr %8, align 8, !tbaa !4
  %42 = load ptr, ptr %8, align 8, !tbaa !4
  %43 = icmp ne ptr %42, null
  br i1 %43, label %44, label %47

44:                                               ; preds = %37
  %45 = load ptr, ptr %7, align 8, !tbaa !16
  store ptr null, ptr %45, align 8, !tbaa !4
  %46 = load ptr, ptr %8, align 8, !tbaa !4
  call void @Py_DECREF(ptr noundef %46)
  br label %47

47:                                               ; preds = %44, %37
  call void @llvm.lifetime.end.p0(i64 8, ptr %8) #7
  call void @llvm.lifetime.end.p0(i64 8, ptr %7) #7
  br label %48

48:                                               ; preds = %47
  br label %49

49:                                               ; preds = %48
  call void @llvm.lifetime.start.p0(i64 8, ptr %9) #7
  %50 = load ptr, ptr %2, align 8, !tbaa !9
  %51 = getelementptr inbounds nuw %struct.methodcallerobject, ptr %50, i32 0, i32 4
  store ptr %51, ptr %9, align 8, !tbaa !16
  call void @llvm.lifetime.start.p0(i64 8, ptr %10) #7
  %52 = load ptr, ptr %9, align 8, !tbaa !16
  %53 = load ptr, ptr %52, align 8, !tbaa !4
  store ptr %53, ptr %10, align 8, !tbaa !4
  %54 = load ptr, ptr %10, align 8, !tbaa !4
  %55 = icmp ne ptr %54, null
  br i1 %55, label %56, label %59

56:                                               ; preds = %49
  %57 = load ptr, ptr %9, align 8, !tbaa !16
  store ptr null, ptr %57, align 8, !tbaa !4
  %58 = load ptr, ptr %10, align 8, !tbaa !4
  call void @Py_DECREF(ptr noundef %58)
  br label %59

59:                                               ; preds = %56, %49
  call void @llvm.lifetime.end.p0(i64 8, ptr %10) #7
  call void @llvm.lifetime.end.p0(i64 8, ptr %9) #7
  br label %60

60:                                               ; preds = %59
  br label %61

61:                                               ; preds = %60
  call void @llvm.lifetime.start.p0(i64 8, ptr %11) #7
  %62 = load ptr, ptr %2, align 8, !tbaa !9
  %63 = getelementptr inbounds nuw %struct.methodcallerobject, ptr %62, i32 0, i32 5
  store ptr %63, ptr %11, align 8, !tbaa !16
  call void @llvm.lifetime.start.p0(i64 8, ptr %12) #7
  %64 = load ptr, ptr %11, align 8, !tbaa !16
  %65 = load ptr, ptr %64, align 8, !tbaa !4
  store ptr %65, ptr %12, align 8, !tbaa !4
  %66 = load ptr, ptr %12, align 8, !tbaa !4
  %67 = icmp ne ptr %66, null
  br i1 %67, label %68, label %71

68:                                               ; preds = %61
  %69 = load ptr, ptr %11, align 8, !tbaa !16
  store ptr null, ptr %69, align 8, !tbaa !4
  %70 = load ptr, ptr %12, align 8, !tbaa !4
  call void @Py_DECREF(ptr noundef %70)
  br label %71

71:                                               ; preds = %68, %61
  call void @llvm.lifetime.end.p0(i64 8, ptr %12) #7
  call void @llvm.lifetime.end.p0(i64 8, ptr %11) #7
  br label %72

72:                                               ; preds = %71
  ret void
}