; Function Attrs: nounwind uwtable
define internal void @methodcaller_clear(ptr noundef captures(none) %0) #0 {
  %2 = getelementptr inbounds nuw i8, ptr %0, i64 16
  %3 = load ptr, ptr %2, align 8, !tbaa !17
  %.not = icmp eq ptr %3, null
  br i1 %.not, label %Py_DECREF.exit40, label %4

4:                                                ; preds = %1
  store ptr null, ptr %2, align 8, !tbaa !17
  %5 = load i32, ptr %3, align 8, !tbaa !18
  %.not.i39 = icmp sgt i32 %5, -1
  br i1 %.not.i39, label %6, label %Py_DECREF.exit40

6:                                                ; preds = %4
  %7 = add nsw i32 %5, -1
  store i32 %7, ptr %3, align 8, !tbaa !18
  %8 = icmp eq i32 %7, 0
  br i1 %8, label %9, label %Py_DECREF.exit40

9:                                                ; preds = %6
  tail call void @_Py_Dealloc(ptr noundef nonnull %3) #7
  br label %Py_DECREF.exit40

Py_DECREF.exit40:                                 ; preds = %9, %6, %4, %1
  %10 = getelementptr inbounds nuw i8, ptr %0, i64 24
  %11 = load ptr, ptr %10, align 8, !tbaa !17
  %.not29 = icmp eq ptr %11, null
  br i1 %.not29, label %Py_DECREF.exit38, label %12

12:                                               ; preds = %Py_DECREF.exit40
  store ptr null, ptr %10, align 8, !tbaa !17
  %13 = load i32, ptr %11, align 8, !tbaa !18
  %.not.i37 = icmp sgt i32 %13, -1
  br i1 %.not.i37, label %14, label %Py_DECREF.exit38

14:                                               ; preds = %12
  %15 = add nsw i32 %13, -1
  store i32 %15, ptr %11, align 8, !tbaa !18
  %16 = icmp eq i32 %15, 0
  br i1 %16, label %17, label %Py_DECREF.exit38

17:                                               ; preds = %14
  tail call void @_Py_Dealloc(ptr noundef nonnull %11) #7
  br label %Py_DECREF.exit38

Py_DECREF.exit38:                                 ; preds = %17, %14, %12, %Py_DECREF.exit40
  %18 = getelementptr inbounds nuw i8, ptr %0, i64 32
  %19 = load ptr, ptr %18, align 8, !tbaa !17
  %.not30 = icmp eq ptr %19, null
  br i1 %.not30, label %Py_DECREF.exit36, label %20

20:                                               ; preds = %Py_DECREF.exit38
  store ptr null, ptr %18, align 8, !tbaa !17
  %21 = load i32, ptr %19, align 8, !tbaa !18
  %.not.i35 = icmp sgt i32 %21, -1
  br i1 %.not.i35, label %22, label %Py_DECREF.exit36

22:                                               ; preds = %20
  %23 = add nsw i32 %21, -1
  store i32 %23, ptr %19, align 8, !tbaa !18
  %24 = icmp eq i32 %23, 0
  br i1 %24, label %25, label %Py_DECREF.exit36

25:                                               ; preds = %22
  tail call void @_Py_Dealloc(ptr noundef nonnull %19) #7
  br label %Py_DECREF.exit36

Py_DECREF.exit36:                                 ; preds = %25, %22, %20, %Py_DECREF.exit38
  %26 = getelementptr inbounds nuw i8, ptr %0, i64 40
  %27 = load ptr, ptr %26, align 8, !tbaa !17
  %.not31 = icmp eq ptr %27, null
  br i1 %.not31, label %Py_DECREF.exit34, label %28

28:                                               ; preds = %Py_DECREF.exit36
  store ptr null, ptr %26, align 8, !tbaa !17
  %29 = load i32, ptr %27, align 8, !tbaa !18
  %.not.i33 = icmp sgt i32 %29, -1
  br i1 %.not.i33, label %30, label %Py_DECREF.exit34

30:                                               ; preds = %28
  %31 = add nsw i32 %29, -1
  store i32 %31, ptr %27, align 8, !tbaa !18
  %32 = icmp eq i32 %31, 0
  br i1 %32, label %33, label %Py_DECREF.exit34

33:                                               ; preds = %30
  tail call void @_Py_Dealloc(ptr noundef nonnull %27) #7
  br label %Py_DECREF.exit34

Py_DECREF.exit34:                                 ; preds = %33, %30, %28, %Py_DECREF.exit36
  %34 = getelementptr inbounds nuw i8, ptr %0, i64 48
  %35 = load ptr, ptr %34, align 8, !tbaa !17
  %.not32 = icmp eq ptr %35, null
  br i1 %.not32, label %Py_DECREF.exit, label %36

36:                                               ; preds = %Py_DECREF.exit34
  store ptr null, ptr %34, align 8, !tbaa !17
  %37 = load i32, ptr %35, align 8, !tbaa !18
  %.not.i = icmp sgt i32 %37, -1
  br i1 %.not.i, label %38, label %Py_DECREF.exit

38:                                               ; preds = %36
  %39 = add nsw i32 %37, -1
  store i32 %39, ptr %35, align 8, !tbaa !18
  %40 = icmp eq i32 %39, 0
  br i1 %40, label %41, label %Py_DECREF.exit

41:                                               ; preds = %38
  tail call void @_Py_Dealloc(ptr noundef nonnull %35) #7
  br label %Py_DECREF.exit

Py_DECREF.exit:                                   ; preds = %41, %38, %36, %Py_DECREF.exit34
  ret void
}